; Function Attrs: nounwind uwtable
define noalias noundef ptr @Ssw_ManCreate(ptr noundef %0, ptr noundef %1) local_unnamed_addr #0 {
  tail call void @Aig_ManFanoutStart(ptr noundef %0) #12
  tail call void @Aig_ManSetCioIds(ptr noundef %0) #12
  %calloc = tail call dereferenceable_or_null(424) ptr @calloc(i64 1, i64 424)
  store ptr %1, ptr %calloc, align 8, !tbaa !3
  %3 = getelementptr inbounds nuw i8, ptr %calloc, i64 16
  store ptr %0, ptr %3, align 8, !tbaa !19
  %4 = getelementptr inbounds nuw i8, ptr %1, i64 12
  %5 = load i32, ptr %4, align 4, !tbaa !20
  %6 = add nsw i32 %5, 1
  %7 = getelementptr inbounds nuw i8, ptr %calloc, i64 8
  store i32 %6, ptr %7, align 8, !tbaa !22
  %8 = getelementptr i8, ptr %0, i64 32
  %.val = load ptr, ptr %8, align 8, !tbaa !23
  %9 = getelementptr i8, ptr %.val, i64 4
  %.val.val = load i32, ptr %9, align 4, !tbaa !31
  %10 = mul nsw i32 %.val.val, %6
  %11 = sext i32 %10 to i64
  %12 = tail call noalias ptr @calloc(i64 noundef %11, i64 noundef 8) #13
  %13 = getelementptr inbounds nuw i8, ptr %calloc, i64 32
  store ptr %12, ptr %13, align 8, !tbaa !33
  %14 = tail call noalias dereferenceable_or_null(16) ptr @malloc(i64 noundef 16) #14
  %15 = getelementptr inbounds nuw i8, ptr %14, i64 4
  store i32 0, ptr %15, align 4, !tbaa !31
  store i32 100, ptr %14, align 8, !tbaa !34
  %16 = tail call noalias dereferenceable_or_null(800) ptr @malloc(i64 noundef 800) #14
  %17 = getelementptr inbounds nuw i8, ptr %14, i64 8
  store ptr %16, ptr %17, align 8, !tbaa !35
  %18 = getelementptr inbounds nuw i8, ptr %calloc, i64 128
  store ptr %14, ptr %18, align 8, !tbaa !36
  %19 = getelementptr inbounds nuw i8, ptr %calloc, i64 136
  store i32 -1, ptr %19, align 8, !tbaa !37
  %20 = getelementptr i8, ptr %0, i64 108
  %.val25 = load i32, ptr %20, align 4, !tbaa !38
  %21 = mul nsw i32 %.val25, %6
  %22 = getelementptr i8, ptr %0, i64 104
  %.val26 = load i32, ptr %22, align 8, !tbaa !39
  %23 = add nsw i32 %21, %.val26
  %24 = ashr i32 %23, 5
  %25 = and i32 %23, 31
  %26 = icmp ne i32 %25, 0
  %27 = zext i1 %26 to i32
  %28 = add nsw i32 %24, %27
  %29 = getelementptr inbounds nuw i8, ptr %calloc, i64 240
  store i32 %28, ptr %29, align 8, !tbaa !40
  %30 = sext i32 %28 to i64
  %31 = tail call noalias ptr @calloc(i64 noundef %30, i64 noundef 4) #13
  %32 = getelementptr inbounds nuw i8, ptr %calloc, i64 248
  store ptr %31, ptr %32, align 8, !tbaa !41
  %33 = tail call noalias dereferenceable_or_null(16) ptr @malloc(i64 noundef 16) #14
  %34 = getelementptr inbounds nuw i8, ptr %33, i64 4
  store i32 0, ptr %34, align 4, !tbaa !31
  store i32 100, ptr %33, align 8, !tbaa !34
  %35 = tail call noalias dereferenceable_or_null(800) ptr @malloc(i64 noundef 800) #14
  %36 = getelementptr inbounds nuw i8, ptr %33, i64 8
  store ptr %35, ptr %36, align 8, !tbaa !35
  %37 = getelementptr inbounds nuw i8, ptr %calloc, i64 168
  store ptr %33, ptr %37, align 8, !tbaa !42
  %38 = tail call noalias dereferenceable_or_null(16) ptr @malloc(i64 noundef 16) #14
  %39 = getelementptr inbounds nuw i8, ptr %38, i64 4
  store i32 0, ptr %39, align 4, !tbaa !43
  store i32 100, ptr %38, align 8, !tbaa !45
  %40 = tail call noalias dereferenceable_or_null(400) ptr @malloc(i64 noundef 400) #14
  %41 = getelementptr inbounds nuw i8, ptr %38, i64 8
  store ptr %40, ptr %41, align 8, !tbaa !46
  %42 = getelementptr inbounds nuw i8, ptr %calloc, i64 176
  store ptr %38, ptr %42, align 8, !tbaa !47
  %43 = tail call noalias dereferenceable_or_null(16) ptr @malloc(i64 noundef 16) #14
  %44 = getelementptr inbounds nuw i8, ptr %43, i64 4
  store i32 0, ptr %44, align 4, !tbaa !31
  store i32 100, ptr %43, align 8, !tbaa !34
  %45 = tail call noalias dereferenceable_or_null(800) ptr @malloc(i64 noundef 800) #14
  %46 = getelementptr inbounds nuw i8, ptr %43, i64 8
  store ptr %45, ptr %46, align 8, !tbaa !35
  %47 = getelementptr inbounds nuw i8, ptr %calloc, i64 216
  store ptr %43, ptr %47, align 8, !tbaa !48
  %48 = tail call noalias dereferenceable_or_null(16) ptr @malloc(i64 noundef 16) #14
  %49 = getelementptr inbounds nuw i8, ptr %48, i64 4
  store i32 0, ptr %49, align 4, !tbaa !31
  store i32 100, ptr %48, align 8, !tbaa !34
  %50 = tail call noalias dereferenceable_or_null(800) ptr @malloc(i64 noundef 800) #14
  %51 = getelementptr inbounds nuw i8, ptr %48, i64 8
  store ptr %50, ptr %51, align 8, !tbaa !35
  %52 = getelementptr inbounds nuw i8, ptr %calloc, i64 224
  store ptr %48, ptr %52, align 8, !tbaa !49
  ret ptr %calloc
}